target datalayout = "e-m:e-p270:32:32-p271:32:32-p272:64:64-i64:64-i128:128-f80:128-n8:16:32:64-S128"
target triple = "x86_64-pc-linux-gnu"

%struct.archive_read = type { %struct.archive, ptr, i32, i64, i64, %struct.archive_read_client, [16 x %struct.archive_read_filter_bidder], ptr, i32, i64, i32, i32, [16 x %struct.archive_format_descriptor], ptr, ptr, ptr, %struct.anon }
%struct.archive = type { i32, i32, ptr, i32, ptr, i32, i32, ptr, %struct.archive_string, ptr, i32, i32, ptr, ptr, i64, i64, i64, i8, i64 }
%struct.archive_string = type { ptr, i64, i64 }
%struct.archive_read_client = type { ptr, ptr, ptr, ptr, ptr, ptr, i32, i32, i64, ptr }
%struct.archive_read_filter_bidder = type { ptr, ptr, ptr }
%struct.archive_format_descriptor = type { ptr, ptr, ptr, ptr, ptr, ptr, ptr, ptr, ptr, ptr, ptr }
%struct.anon = type { ptr, ptr, i32, ptr, ptr }
%struct.rar5 = type { i32, i32, i32, i32, i64, i64, %struct.generic_header, %struct.main_header, %struct.comp_state, %struct.file_header, %struct.bit_reader, %struct.multivolume, %struct.compressed_block_header, i32, i32 }
%struct.generic_header = type { i8, i32, i32 }
%struct.main_header = type { i8, i32 }
%struct.comp_state = type { i8, i32, i32, i32, i64, ptr, ptr, ptr, i64, i64, i64, i64, i64, i64, i32, %struct.decode_table, %struct.decode_table, %struct.decode_table, %struct.decode_table, %struct.decode_table, %struct.cdeque, i64, i64, [4 x i32], [2 x %struct.data_ready] }
%struct.decode_table = type { i32, [16 x i32], [16 x i32], i32, [1024 x i8], [1024 x i16], [306 x i16] }
%struct.cdeque = type { i16, i16, i16, i16, ptr }
%struct.data_ready = type { i8, ptr, i64, i64 }
%struct.file_header = type { i64, i64, i64, i64, i8, i64, i64, i64, i32, i32, i32, [32 x i8], %struct.blake2sp_state__, i8, i64, i64, i64 }
%struct.blake2sp_state__ = type { [8 x [1 x %struct.blake2s_state__]], [1 x %struct.blake2s_state__], [512 x i8], i64, i64 }
%struct.blake2s_state__ = type { [8 x i32], [2 x i32], [2 x i32], [64 x i8], i64, i64, i8 }
%struct.bit_reader = type { i8, i32 }
%struct.multivolume = type { i32, ptr }
%struct.compressed_block_header = type { i8, i8 }

; Function Attrs: nounwind uwtable
define internal i32 @consume(ptr noundef %0, i64 noundef %1) #0 {
  %3 = alloca ptr, align 8
  %4 = alloca i64, align 8
  %5 = alloca i32, align 4
  store ptr %0, ptr %3, align 8, !tbaa !13
  store i64 %1, ptr %4, align 8, !tbaa !42
  call void @llvm.lifetime.start.p0(i64 4, ptr %5) #11
  %6 = load i64, ptr %4, align 8, !tbaa !42
  %7 = load ptr, ptr %3, align 8, !tbaa !13
  %8 = load i64, ptr %4, align 8, !tbaa !42
  %9 = call i64 @__archive_read_consume(ptr noundef %7, i64 noundef %8)
  %10 = icmp eq i64 %6, %9
  %11 = select i1 %10, i32 0, i32 -30
  store i32 %11, ptr %5, align 4, !tbaa !9
  %12 = load i32, ptr %5, align 4, !tbaa !9
  call void @llvm.lifetime.end.p0(i64 4, ptr %5) #11
  ret i32 %12
}

; Function Attrs: inlinehint nounwind uwtable
define internal ptr @get_context(ptr noundef %0) #2 {
  %2 = alloca ptr, align 8
  store ptr %0, ptr %2, align 8, !tbaa !13
  %3 = load ptr, ptr %2, align 8, !tbaa !13
  %4 = getelementptr inbounds nuw %struct.archive_read, ptr %3, i32 0, i32 13
  %5 = load ptr, ptr %4, align 8, !tbaa !52
  %6 = getelementptr inbounds nuw %struct.archive_format_descriptor, ptr %5, i32 0, i32 0
  %7 = load ptr, ptr %6, align 8, !tbaa !66
  ret ptr %7
}

; Function Attrs: nounwind uwtable
define internal i32 @rar5_read_data_skip(ptr noundef %0) #0 {
  %2 = alloca i32, align 4
  %3 = alloca ptr, align 8
  %4 = alloca ptr, align 8
  %5 = alloca i32, align 4
  %6 = alloca i32, align 4
  store ptr %0, ptr %3, align 8, !tbaa !13
  call void @llvm.lifetime.start.p0(i64 8, ptr %4) #11
  %7 = load ptr, ptr %3, align 8, !tbaa !13
  %8 = call ptr @get_context(ptr noundef %7)
  store ptr %8, ptr %4, align 8, !tbaa !11
  %9 = load ptr, ptr %4, align 8, !tbaa !11
  %10 = getelementptr inbounds nuw %struct.rar5, ptr %9, i32 0, i32 7
  %11 = load i8, ptr %10, align 4
  %12 = and i8 %11, 1
  %13 = zext i8 %12 to i32
  %14 = icmp ne i32 %13, 0
  br i1 %14, label %15, label %53

15:                                               ; preds = %1
  %16 = load ptr, ptr %4, align 8, !tbaa !11
  %17 = getelementptr inbounds nuw %struct.rar5, ptr %16, i32 0, i32 8
  %18 = load i8, ptr %17, align 8
  %19 = lshr i8 %18, 4
  %20 = and i8 %19, 1
  %21 = zext i8 %20 to i32
  %22 = icmp eq i32 %21, 0
  br i1 %22, label %23, label %53

23:                                               ; preds = %15
  call void @llvm.lifetime.start.p0(i64 4, ptr %5) #11
  br label %24

24:                                               ; preds = %48, %23
  %25 = load ptr, ptr %4, align 8, !tbaa !11
  %26 = getelementptr inbounds nuw %struct.rar5, ptr %25, i32 0, i32 9
  %27 = getelementptr inbounds nuw %struct.file_header, ptr %26, i32 0, i32 0
  %28 = load i64, ptr %27, align 8, !tbaa !47
  %29 = icmp sgt i64 %28, 0
  br i1 %29, label %30, label %49

30:                                               ; preds = %24
  %31 = load ptr, ptr %4, align 8, !tbaa !11
  %32 = getelementptr inbounds nuw %struct.rar5, ptr %31, i32 0, i32 2
  %33 = load i32, ptr %32, align 8, !tbaa !44
  %34 = add nsw i32 %33, 1
  store i32 %34, ptr %32, align 8, !tbaa !44
  %35 = load ptr, ptr %3, align 8, !tbaa !13
  %36 = call i32 @rar5_read_data(ptr noundef %35, ptr noundef null, ptr noundef null, ptr noundef null)
  store i32 %36, ptr %5, align 4, !tbaa !9
  %37 = load ptr, ptr %4, align 8, !tbaa !11
  %38 = getelementptr inbounds nuw %struct.rar5, ptr %37, i32 0, i32 2
  %39 = load i32, ptr %38, align 8, !tbaa !44
  %40 = add nsw i32 %39, -1
  store i32 %40, ptr %38, align 8, !tbaa !44
  %41 = load i32, ptr %5, align 4, !tbaa !9
  %42 = icmp slt i32 %41, 0
  br i1 %42, label %46, label %43

43:                                               ; preds = %30
  %44 = load i32, ptr %5, align 4, !tbaa !9
  %45 = icmp eq i32 %44, 1
  br i1 %45, label %46, label %48

46:                                               ; preds = %43, %30
  %47 = load i32, ptr %5, align 4, !tbaa !9
  store i32 %47, ptr %2, align 4
  store i32 1, ptr %6, align 4
  br label %50

48:                                               ; preds = %43
  br label %24, !llvm.loop !48

49:                                               ; preds = %24
  store i32 0, ptr %6, align 4
  br label %50

50:                                               ; preds = %49, %46
  call void @llvm.lifetime.end.p0(i64 4, ptr %5) #11
  %51 = load i32, ptr %6, align 4
  switch i32 %51, label %67 [
    i32 0, label %52
  ]

52:                                               ; preds = %50
  br label %66

53:                                               ; preds = %15, %1
  %54 = load ptr, ptr %3, align 8, !tbaa !13
  %55 = load ptr, ptr %4, align 8, !tbaa !11
  %56 = getelementptr inbounds nuw %struct.rar5, ptr %55, i32 0, i32 9
  %57 = getelementptr inbounds nuw %struct.file_header, ptr %56, i32 0, i32 0
  %58 = load i64, ptr %57, align 8, !tbaa !47
  %59 = call i32 @consume(ptr noundef %54, i64 noundef %58)
  %60 = icmp ne i32 0, %59
  br i1 %60, label %61, label %62

61:                                               ; preds = %53
  store i32 -30, ptr %2, align 4
  store i32 1, ptr %6, align 4
  br label %67

62:                                               ; preds = %53
  %63 = load ptr, ptr %4, align 8, !tbaa !11
  %64 = getelementptr inbounds nuw %struct.rar5, ptr %63, i32 0, i32 9
  %65 = getelementptr inbounds nuw %struct.file_header, ptr %64, i32 0, i32 0
  store i64 0, ptr %65, align 8, !tbaa !47
  br label %66

66:                                               ; preds = %62, %52
  store i32 0, ptr %2, align 4
  store i32 1, ptr %6, align 4
  br label %67

67:                                               ; preds = %66, %61, %50
  call void @llvm.lifetime.end.p0(i64 8, ptr %4) #11
  %68 = load i32, ptr %2, align 4
  ret i32 %68
}