; Function Attrs: nounwind uwtable
define internal range(i32 -2147483648, 2) i32 @rar5_read_data_skip(ptr noundef %0) #0 {
  %2 = getelementptr i8, ptr %0, i64 2072
  %.val = load ptr, ptr %2, align 8, !tbaa !31
  %.val.val = load ptr, ptr %.val, align 8, !tbaa !46
  %3 = getelementptr inbounds nuw i8, ptr %.val.val, i64 44
  %4 = load i8, ptr %3, align 4
  %5 = and i8 %4, 1
  %.not = icmp eq i8 %5, 0
  br i1 %.not, label %24, label %6

6:                                                ; preds = %1
  %7 = getelementptr inbounds nuw i8, ptr %.val.val, i64 56
  %8 = load i8, ptr %7, align 8
  %9 = and i8 %8, 16
  %10 = icmp eq i8 %9, 0
  br i1 %10, label %.preheader, label %24

.preheader:                                       ; preds = %6
  %11 = getelementptr inbounds nuw i8, ptr %.val.val, i64 19368
  %12 = getelementptr inbounds nuw i8, ptr %.val.val, i64 8
  br label %13

13:                                               ; preds = %.preheader, %16
  %14 = load i64, ptr %11, align 8, !tbaa !67
  %15 = icmp slt i64 %14, 1
  br i1 %15, label %.thread, label %16

16:                                               ; preds = %13
  %17 = load i32, ptr %12, align 8, !tbaa !56
  %18 = add nsw i32 %17, 1
  store i32 %18, ptr %12, align 8, !tbaa !56
  %19 = tail call i32 @rar5_read_data(ptr noundef %0, ptr noundef null, ptr noundef null, ptr noundef null)
  %20 = load i32, ptr %12, align 8, !tbaa !56
  %21 = add nsw i32 %20, -1
  store i32 %21, ptr %12, align 8, !tbaa !56
  %22 = icmp slt i32 %19, 0
  %23 = icmp eq i32 %19, 1
  %or.cond = or i1 %22, %23
  br i1 %or.cond, label %.thread, label %13, !llvm.loop !68

24:                                               ; preds = %6, %1
  %25 = getelementptr inbounds nuw i8, ptr %.val.val, i64 19368
  %26 = load i64, ptr %25, align 8, !tbaa !67
  %27 = tail call i64 @__archive_read_consume(ptr noundef nonnull %0, i64 noundef %26) #15
  %28 = icmp eq i64 %26, %27
  br i1 %28, label %29, label %.thread

29:                                               ; preds = %24
  store i64 0, ptr %25, align 8, !tbaa !67
  br label %.thread

.thread:                                          ; preds = %13, %16, %29, %24
  %.1 = phi i32 [ -30, %24 ], [ 0, %29 ], [ 0, %13 ], [ %19, %16 ]
  ret i32 %.1
}